target datalayout = "e-m:e-p270:32:32-p271:32:32-p272:64:64-i64:64-i128:128-f80:128-n8:16:32:64-S128"
target triple = "x86_64-pc-linux-gnu"

%"class.cv::bioinspired::BasicRetinaFilter" = type { %"class.cv::bioinspired::TemplateBuffer", %"class.std::valarray", i32, i32, %"class.std::valarray", %"class.std::valarray", %"class.std::valarray", float, float, float, float, float, float, float, float }
%"class.cv::bioinspired::TemplateBuffer" = type { ptr, %"class.std::valarray", i64, i64, i64, i64, i64 }
%"class.std::valarray" = type { i64, ptr }

; Function Attrs: inlinehint mustprogress nounwind uwtable
define linkonce_odr hidden noundef i32 @_ZN2cv11bioinspired14TemplateBufferIfE9getNBrowsEv(ptr noundef nonnull align 8 dereferenceable(64) %0) #6 comdat align 2 {
  %2 = alloca ptr, align 8
  store ptr %0, ptr %2, align 8, !tbaa !23
  %3 = load ptr, ptr %2, align 8
  %4 = getelementptr inbounds nuw %"class.cv::bioinspired::TemplateBuffer", ptr %3, i32 0, i32 2
  %5 = load i64, ptr %4, align 8, !tbaa !29
  %6 = trunc i64 %5 to i32
  ret i32 %6
}

; Function Attrs: inlinehint mustprogress nounwind uwtable
define linkonce_odr hidden noundef i32 @_ZN2cv11bioinspired14TemplateBufferIfE12getNBcolumnsEv(ptr noundef nonnull align 8 dereferenceable(64) %0) #6 comdat align 2 {
  %2 = alloca ptr, align 8
  store ptr %0, ptr %2, align 8, !tbaa !23
  %3 = load ptr, ptr %2, align 8
  %4 = getelementptr inbounds nuw %"class.cv::bioinspired::TemplateBuffer", ptr %3, i32 0, i32 3
  %5 = load i64, ptr %4, align 8, !tbaa !30
  %6 = trunc i64 %5 to i32
  ret i32 %6
}

; Function Attrs: inlinehint mustprogress nounwind uwtable
define linkonce_odr hidden noundef i32 @_ZN2cv11bioinspired14TemplateBufferIfE11getNBpixelsEv(ptr noundef nonnull align 8 dereferenceable(64) %0) #6 comdat align 2 {
  %2 = alloca ptr, align 8
  store ptr %0, ptr %2, align 8, !tbaa !23
  %3 = load ptr, ptr %2, align 8
  %4 = getelementptr inbounds nuw %"class.cv::bioinspired::TemplateBuffer", ptr %3, i32 0, i32 5
  %5 = load i64, ptr %4, align 8, !tbaa !32
  %6 = trunc i64 %5 to i32
  ret i32 %6
}

; Function Attrs: mustprogress uwtable
define hidden void @_ZN2cv11bioinspired17BasicRetinaFilter25_verticalAnticausalFilterEPfjj(ptr noundef nonnull align 8 dereferenceable(168) %0, ptr noundef %1, i32 noundef %2, i32 noundef %3) #4 align 2 {
  %5 = alloca ptr, align 8
  %6 = alloca ptr, align 8
  %7 = alloca i32, align 4
  %8 = alloca i32, align 4
  %9 = alloca ptr, align 8
  %10 = alloca i32, align 4
  %11 = alloca i32, align 4
  %12 = alloca float, align 4
  %13 = alloca ptr, align 8
  %14 = alloca i32, align 4
  store ptr %0, ptr %5, align 8, !tbaa !3
  store ptr %1, ptr %6, align 8, !tbaa !49
  store i32 %2, ptr %7, align 4, !tbaa !8
  store i32 %3, ptr %8, align 4, !tbaa !8
  %15 = load ptr, ptr %5, align 8
  call void @llvm.lifetime.start.p0(i64 8, ptr %9) #3
  %16 = load ptr, ptr %6, align 8, !tbaa !49
  %17 = getelementptr inbounds nuw %"class.cv::bioinspired::BasicRetinaFilter", ptr %15, i32 0, i32 0
  %18 = call noundef i32 @_ZN2cv11bioinspired14TemplateBufferIfE11getNBpixelsEv(ptr noundef nonnull align 8 dereferenceable(64) %17)
  %19 = zext i32 %18 to i64
  %20 = getelementptr inbounds nuw float, ptr %16, i64 %19
  %21 = getelementptr inbounds nuw %"class.cv::bioinspired::BasicRetinaFilter", ptr %15, i32 0, i32 0
  %22 = call noundef i32 @_ZN2cv11bioinspired14TemplateBufferIfE12getNBcolumnsEv(ptr noundef nonnull align 8 dereferenceable(64) %21)
  %23 = zext i32 %22 to i64
  %24 = sub i64 0, %23
  %25 = getelementptr inbounds float, ptr %20, i64 %24
  store ptr %25, ptr %9, align 8, !tbaa !49
  call void @llvm.lifetime.start.p0(i64 4, ptr %10) #3
  %26 = load i32, ptr %7, align 4, !tbaa !8
  store i32 %26, ptr %10, align 4, !tbaa !8
  br label %27

27:                                               ; preds = %62, %4
  %28 = load i32, ptr %10, align 4, !tbaa !8
  %29 = load i32, ptr %8, align 4, !tbaa !8
  %30 = icmp ult i32 %28, %29
  br i1 %30, label %32, label %31

31:                                               ; preds = %27
  store i32 2, ptr %11, align 4
  call void @llvm.lifetime.end.p0(i64 4, ptr %10) #3
  br label %65

32:                                               ; preds = %27
  call void @llvm.lifetime.start.p0(i64 4, ptr %12) #3
  store float 0.000000e+00, ptr %12, align 4, !tbaa !26
  call void @llvm.lifetime.start.p0(i64 8, ptr %13) #3
  %33 = load ptr, ptr %9, align 8, !tbaa !49
  %34 = load i32, ptr %10, align 4, !tbaa !8
  %35 = zext i32 %34 to i64
  %36 = getelementptr inbounds nuw float, ptr %33, i64 %35
  store ptr %36, ptr %13, align 8, !tbaa !49
  call void @llvm.lifetime.start.p0(i64 4, ptr %14) #3
  store i32 0, ptr %14, align 4, !tbaa !8
  br label %37

37:                                               ; preds = %58, %32
  %38 = load i32, ptr %14, align 4, !tbaa !8
  %39 = getelementptr inbounds nuw %"class.cv::bioinspired::BasicRetinaFilter", ptr %15, i32 0, i32 0
  %40 = call noundef i32 @_ZN2cv11bioinspired14TemplateBufferIfE9getNBrowsEv(ptr noundef nonnull align 8 dereferenceable(64) %39)
  %41 = icmp ult i32 %38, %40
  br i1 %41, label %43, label %42

42:                                               ; preds = %37
  store i32 5, ptr %11, align 4
  call void @llvm.lifetime.end.p0(i64 4, ptr %14) #3
  br label %61

43:                                               ; preds = %37
  %44 = load ptr, ptr %13, align 8, !tbaa !49
  %45 = load float, ptr %44, align 4, !tbaa !26
  %46 = getelementptr inbounds nuw %"class.cv::bioinspired::BasicRetinaFilter", ptr %15, i32 0, i32 12
  %47 = load float, ptr %46, align 4, !tbaa !46
  %48 = load float, ptr %12, align 4, !tbaa !26
  %49 = call float @llvm.fmuladd.f32(float %47, float %48, float %45)
  store float %49, ptr %12, align 4, !tbaa !26
  %50 = load float, ptr %12, align 4, !tbaa !26
  %51 = load ptr, ptr %13, align 8, !tbaa !49
  store float %50, ptr %51, align 4, !tbaa !26
  %52 = getelementptr inbounds nuw %"class.cv::bioinspired::BasicRetinaFilter", ptr %15, i32 0, i32 0
  %53 = call noundef i32 @_ZN2cv11bioinspired14TemplateBufferIfE12getNBcolumnsEv(ptr noundef nonnull align 8 dereferenceable(64) %52)
  %54 = load ptr, ptr %13, align 8, !tbaa !49
  %55 = zext i32 %53 to i64
  %56 = sub i64 0, %55
  %57 = getelementptr inbounds float, ptr %54, i64 %56
  store ptr %57, ptr %13, align 8, !tbaa !49
  br label %58

58:                                               ; preds = %43
  %59 = load i32, ptr %14, align 4, !tbaa !8
  %60 = add i32 %59, 1
  store i32 %60, ptr %14, align 4, !tbaa !8
  br label %37, !llvm.loop !103

61:                                               ; preds = %42
  call void @llvm.lifetime.end.p0(i64 8, ptr %13) #3
  call void @llvm.lifetime.end.p0(i64 4, ptr %12) #3
  br label %62

62:                                               ; preds = %61
  %63 = load i32, ptr %10, align 4, !tbaa !8
  %64 = add i32 %63, 1
  store i32 %64, ptr %10, align 4, !tbaa !8
  br label %27, !llvm.loop !104

65:                                               ; preds = %31
  call void @llvm.lifetime.end.p0(i64 8, ptr %9) #3
  ret void
}