; Function Attrs: mustprogress nofree norecurse nosync nounwind memory(argmem: readwrite) uwtable
define hidden void @_ZN2cv11bioinspired17BasicRetinaFilter25_verticalAnticausalFilterEPfjj(ptr noundef nonnull readonly align 8 captures(none) dereferenceable(168) %0, ptr noundef captures(none) %1, i32 noundef %2, i32 noundef %3) local_unnamed_addr #9 align 2 {
  %5 = getelementptr inbounds nuw i8, ptr %0, i64 48
  %6 = load i64, ptr %5, align 8, !tbaa !19
  %7 = and i64 %6, 4294967295
  %8 = getelementptr inbounds nuw float, ptr %1, i64 %7
  %9 = getelementptr inbounds nuw i8, ptr %0, i64 32
  %10 = load i64, ptr %9, align 8, !tbaa !17
  %11 = and i64 %10, 4294967295
  %12 = sub nsw i64 0, %11
  %13 = getelementptr inbounds float, ptr %8, i64 %12
  %14 = icmp ult i32 %2, %3
  br i1 %14, label %.lr.ph22, label %._crit_edge23

.lr.ph22:                                         ; preds = %4
  %15 = getelementptr inbounds nuw i8, ptr %0, i64 24
  %16 = load i64, ptr %15, align 8, !tbaa !15
  %17 = trunc i64 %16 to i32
  %.not = icmp eq i32 %17, 0
  %18 = getelementptr inbounds nuw i8, ptr %0, i64 156
  br i1 %.not, label %._crit_edge23, label %.lr.ph.us.preheader

.lr.ph.us.preheader:                              ; preds = %.lr.ph22
  %19 = zext i32 %2 to i64
  %wide.trip.count = zext i32 %3 to i64
  br label %.lr.ph.us

.lr.ph.us:                                        ; preds = %.lr.ph.us.preheader, %._crit_edge.us
  %indvars.iv = phi i64 [ %19, %.lr.ph.us.preheader ], [ %indvars.iv.next, %._crit_edge.us ]
  %20 = getelementptr inbounds nuw float, ptr %13, i64 %indvars.iv
  br label %21

21:                                               ; preds = %.lr.ph.us, %21
  %.019.us = phi i32 [ 0, %.lr.ph.us ], [ %26, %21 ]
  %.01418.us = phi ptr [ %20, %.lr.ph.us ], [ %25, %21 ]
  %.01517.us = phi float [ 0.000000e+00, %.lr.ph.us ], [ %24, %21 ]
  %22 = load float, ptr %.01418.us, align 4, !tbaa !11
  %23 = load float, ptr %18, align 4, !tbaa !65
  %24 = tail call float @llvm.fmuladd.f32(float %23, float %.01517.us, float %22)
  store float %24, ptr %.01418.us, align 4, !tbaa !11
  %25 = getelementptr inbounds float, ptr %.01418.us, i64 %12
  %26 = add nuw i32 %.019.us, 1
  %exitcond.not = icmp eq i32 %26, %17
  br i1 %exitcond.not, label %._crit_edge.us, label %21, !llvm.loop !117

._crit_edge.us:                                   ; preds = %21
  %indvars.iv.next = add nuw nsw i64 %indvars.iv, 1
  %exitcond26.not = icmp eq i64 %indvars.iv.next, %wide.trip.count
  br i1 %exitcond26.not, label %._crit_edge23, label %.lr.ph.us, !llvm.loop !118

._crit_edge23:                                    ; preds = %._crit_edge.us, %.lr.ph22, %4
  ret void
}